target datalayout = "e-m:e-p270:32:32-p271:32:32-p272:64:64-i64:64-i128:128-f80:128-n8:16:32:64-S128"
target triple = "x86_64-pc-linux-gnu"

; Function Attrs: mustprogress uwtable
define noundef i32 @_ZN10duckdb_lz432LZ4_decompress_safe_forceExtDictEPKcPciiPKvm(ptr noundef %0, ptr noundef %1, i32 noundef %2, i32 noundef %3, ptr noundef %4, i64 noundef %5) #1 {
  %7 = alloca ptr, align 8
  %8 = alloca ptr, align 8
  %9 = alloca i32, align 4
  %10 = alloca i32, align 4
  %11 = alloca ptr, align 8
  %12 = alloca i64, align 8
  store ptr %0, ptr %7, align 8, !tbaa !9
  store ptr %1, ptr %8, align 8, !tbaa !9
  store i32 %2, ptr %9, align 4, !tbaa !3
  store i32 %3, ptr %10, align 4, !tbaa !3
  store ptr %4, ptr %11, align 8, !tbaa !7
  store i64 %5, ptr %12, align 8, !tbaa !15
  %13 = load ptr, ptr %7, align 8, !tbaa !9
  %14 = load ptr, ptr %8, align 8, !tbaa !9
  %15 = load i32, ptr %9, align 4, !tbaa !3
  %16 = load i32, ptr %10, align 4, !tbaa !3
  %17 = load ptr, ptr %8, align 8, !tbaa !9
  %18 = load ptr, ptr %11, align 8, !tbaa !7
  %19 = load i64, ptr %12, align 8, !tbaa !15
  %20 = call noundef i32 @_ZN10duckdb_lz4L22LZ4_decompress_genericEPKcPciiNS_18earlyEnd_directiveENS_14dict_directiveEPKhS6_m(ptr noundef %13, ptr noundef %14, i32 noundef %15, i32 noundef %16, i32 noundef 0, i32 noundef 2, ptr noundef %17, ptr noundef %18, i64 noundef %19)
  ret i32 %20
}

; Function Attrs: mustprogress uwtable
define internal noundef i32 @_ZN10duckdb_lz4L35LZ4_decompress_safe_withSmallPrefixEPKcPciim(ptr noundef %0, ptr noundef %1, i32 noundef %2, i32 noundef %3, i64 noundef %4) #1 {
  %6 = alloca ptr, align 8
  %7 = alloca ptr, align 8
  %8 = alloca i32, align 4
  %9 = alloca i32, align 4
  %10 = alloca i64, align 8
  store ptr %0, ptr %6, align 8, !tbaa !9
  store ptr %1, ptr %7, align 8, !tbaa !9
  store i32 %2, ptr %8, align 4, !tbaa !3
  store i32 %3, ptr %9, align 4, !tbaa !3
  store i64 %4, ptr %10, align 8, !tbaa !15
  %11 = load ptr, ptr %6, align 8, !tbaa !9
  %12 = load ptr, ptr %7, align 8, !tbaa !9
  %13 = load i32, ptr %8, align 4, !tbaa !3
  %14 = load i32, ptr %9, align 4, !tbaa !3
  %15 = load ptr, ptr %7, align 8, !tbaa !9
  %16 = load i64, ptr %10, align 8, !tbaa !15
  %17 = sub i64 0, %16
  %18 = getelementptr inbounds i8, ptr %15, i64 %17
  %19 = call noundef i32 @_ZN10duckdb_lz4L22LZ4_decompress_genericEPKcPciiNS_18earlyEnd_directiveENS_14dict_directiveEPKhS6_m(ptr noundef %11, ptr noundef %12, i32 noundef %13, i32 noundef %14, i32 noundef 0, i32 noundef 0, ptr noundef %18, ptr noundef null, i64 noundef 0)
  ret i32 %19
}

; Function Attrs: mustprogress uwtable
define noundef i32 @_ZN10duckdb_lz433LZ4_decompress_safe_withPrefix64kEPKcPcii(ptr noundef %0, ptr noundef %1, i32 noundef %2, i32 noundef %3) #1 {
  %5 = alloca ptr, align 8
  %6 = alloca ptr, align 8
  %7 = alloca i32, align 4
  %8 = alloca i32, align 4
  store ptr %0, ptr %5, align 8, !tbaa !9
  store ptr %1, ptr %6, align 8, !tbaa !9
  store i32 %2, ptr %7, align 4, !tbaa !3
  store i32 %3, ptr %8, align 4, !tbaa !3
  %9 = load ptr, ptr %5, align 8, !tbaa !9
  %10 = load ptr, ptr %6, align 8, !tbaa !9
  %11 = load i32, ptr %7, align 4, !tbaa !3
  %12 = load i32, ptr %8, align 4, !tbaa !3
  %13 = load ptr, ptr %6, align 8, !tbaa !9
  %14 = getelementptr inbounds i8, ptr %13, i64 -65536
  %15 = call noundef i32 @_ZN10duckdb_lz4L22LZ4_decompress_genericEPKcPciiNS_18earlyEnd_directiveENS_14dict_directiveEPKhS6_m(ptr noundef %9, ptr noundef %10, i32 noundef %11, i32 noundef %12, i32 noundef 0, i32 noundef 1, ptr noundef %14, ptr noundef null, i64 noundef 0)
  ret i32 %15
}

; Function Attrs: mustprogress uwtable
define noundef i32 @_ZN10duckdb_lz419LZ4_decompress_safeEPKcPcii(ptr noundef %0, ptr noundef %1, i32 noundef %2, i32 noundef %3) #1 {
  %5 = alloca ptr, align 8
  %6 = alloca ptr, align 8
  %7 = alloca i32, align 4
  %8 = alloca i32, align 4
  store ptr %0, ptr %5, align 8, !tbaa !9
  store ptr %1, ptr %6, align 8, !tbaa !9
  store i32 %2, ptr %7, align 4, !tbaa !3
  store i32 %3, ptr %8, align 4, !tbaa !3
  %9 = load ptr, ptr %5, align 8, !tbaa !9
  %10 = load ptr, ptr %6, align 8, !tbaa !9
  %11 = load i32, ptr %7, align 4, !tbaa !3
  %12 = load i32, ptr %8, align 4, !tbaa !3
  %13 = load ptr, ptr %6, align 8, !tbaa !9
  %14 = call noundef i32 @_ZN10duckdb_lz4L22LZ4_decompress_genericEPKcPciiNS_18earlyEnd_directiveENS_14dict_directiveEPKhS6_m(ptr noundef %9, ptr noundef %10, i32 noundef %11, i32 noundef %12, i32 noundef 0, i32 noundef 0, ptr noundef %13, ptr noundef null, i64 noundef 0)
  ret i32 %14
}

; Function Attrs: mustprogress uwtable
define noundef i32 @_ZN10duckdb_lz429LZ4_decompress_safe_usingDictEPKcPciiS1_i(ptr noundef %0, ptr noundef %1, i32 noundef %2, i32 noundef %3, ptr noundef %4, i32 noundef %5) #1 {
  %7 = alloca i32, align 4
  %8 = alloca ptr, align 8
  %9 = alloca ptr, align 8
  %10 = alloca i32, align 4
  %11 = alloca i32, align 4
  %12 = alloca ptr, align 8
  %13 = alloca i32, align 4
  store ptr %0, ptr %8, align 8, !tbaa !9
  store ptr %1, ptr %9, align 8, !tbaa !9
  store i32 %2, ptr %10, align 4, !tbaa !3
  store i32 %3, ptr %11, align 4, !tbaa !3
  store ptr %4, ptr %12, align 8, !tbaa !9
  store i32 %5, ptr %13, align 4, !tbaa !3
  %14 = load i32, ptr %13, align 4, !tbaa !3
  %15 = icmp eq i32 %14, 0
  br i1 %15, label %16, label %22

16:                                               ; preds = %6
  %17 = load ptr, ptr %8, align 8, !tbaa !9
  %18 = load ptr, ptr %9, align 8, !tbaa !9
  %19 = load i32, ptr %10, align 4, !tbaa !3
  %20 = load i32, ptr %11, align 4, !tbaa !3
  %21 = call noundef i32 @_ZN10duckdb_lz419LZ4_decompress_safeEPKcPcii(ptr noundef %17, ptr noundef %18, i32 noundef %19, i32 noundef %20)
  store i32 %21, ptr %7, align 4
  br label %55

22:                                               ; preds = %6
  %23 = load ptr, ptr %12, align 8, !tbaa !9
  %24 = load i32, ptr %13, align 4, !tbaa !3
  %25 = sext i32 %24 to i64
  %26 = getelementptr inbounds i8, ptr %23, i64 %25
  %27 = load ptr, ptr %9, align 8, !tbaa !9
  %28 = icmp eq ptr %26, %27
  br i1 %28, label %29, label %46

29:                                               ; preds = %22
  %30 = load i32, ptr %13, align 4, !tbaa !3
  %31 = icmp sge i32 %30, 65535
  br i1 %31, label %32, label %38

32:                                               ; preds = %29
  %33 = load ptr, ptr %8, align 8, !tbaa !9
  %34 = load ptr, ptr %9, align 8, !tbaa !9
  %35 = load i32, ptr %10, align 4, !tbaa !3
  %36 = load i32, ptr %11, align 4, !tbaa !3
  %37 = call noundef i32 @_ZN10duckdb_lz433LZ4_decompress_safe_withPrefix64kEPKcPcii(ptr noundef %33, ptr noundef %34, i32 noundef %35, i32 noundef %36)
  store i32 %37, ptr %7, align 4
  br label %55

38:                                               ; preds = %29
  %39 = load ptr, ptr %8, align 8, !tbaa !9
  %40 = load ptr, ptr %9, align 8, !tbaa !9
  %41 = load i32, ptr %10, align 4, !tbaa !3
  %42 = load i32, ptr %11, align 4, !tbaa !3
  %43 = load i32, ptr %13, align 4, !tbaa !3
  %44 = sext i32 %43 to i64
  %45 = call noundef i32 @_ZN10duckdb_lz4L35LZ4_decompress_safe_withSmallPrefixEPKcPciim(ptr noundef %39, ptr noundef %40, i32 noundef %41, i32 noundef %42, i64 noundef %44)
  store i32 %45, ptr %7, align 4
  br label %55

46:                                               ; preds = %22
  %47 = load ptr, ptr %8, align 8, !tbaa !9
  %48 = load ptr, ptr %9, align 8, !tbaa !9
  %49 = load i32, ptr %10, align 4, !tbaa !3
  %50 = load i32, ptr %11, align 4, !tbaa !3
  %51 = load ptr, ptr %12, align 8, !tbaa !9
  %52 = load i32, ptr %13, align 4, !tbaa !3
  %53 = sext i32 %52 to i64
  %54 = call noundef i32 @_ZN10duckdb_lz432LZ4_decompress_safe_forceExtDictEPKcPciiPKvm(ptr noundef %47, ptr noundef %48, i32 noundef %49, i32 noundef %50, ptr noundef %51, i64 noundef %53)
  store i32 %54, ptr %7, align 4
  br label %55

55:                                               ; preds = %46, %38, %32, %16
  %56 = load i32, ptr %7, align 4
  ret i32 %56
}