; Function Attrs: mustprogress nofree norecurse nosync nounwind memory(readwrite, inaccessiblemem: none) uwtable
define noundef i32 @_ZN10duckdb_lz429LZ4_decompress_safe_usingDictEPKcPciiS1_i(ptr noundef %0, ptr noundef %1, i32 noundef %2, i32 noundef %3, ptr noundef captures(address) %4, i32 noundef %5) local_unnamed_addr #1 {
  %7 = icmp eq i32 %5, 0
  br i1 %7, label %8, label %10

8:                                                ; preds = %6
  %9 = tail call fastcc noundef i32 @_ZN10duckdb_lz4L22LZ4_decompress_genericEPKcPciiNS_18earlyEnd_directiveENS_14dict_directiveEPKhS6_m(ptr noundef %0, ptr noundef %1, i32 noundef %2, i32 noundef %3, i32 noundef 0, i32 noundef 0, ptr noundef %1, ptr noundef null, i64 noundef 0)
  br label %25

10:                                               ; preds = %6
  %11 = sext i32 %5 to i64
  %12 = getelementptr inbounds i8, ptr %4, i64 %11
  %13 = icmp eq ptr %12, %1
  br i1 %13, label %14, label %23

14:                                               ; preds = %10
  %15 = icmp sgt i32 %5, 65534
  br i1 %15, label %16, label %19

16:                                               ; preds = %14
  %17 = getelementptr inbounds i8, ptr %1, i64 -65536
  %18 = tail call fastcc noundef i32 @_ZN10duckdb_lz4L22LZ4_decompress_genericEPKcPciiNS_18earlyEnd_directiveENS_14dict_directiveEPKhS6_m(ptr noundef %0, ptr noundef %1, i32 noundef %2, i32 noundef %3, i32 noundef 0, i32 noundef 1, ptr noundef nonnull %17, ptr noundef null, i64 noundef 0)
  br label %25

19:                                               ; preds = %14
  %20 = sub nsw i64 0, %11
  %21 = getelementptr inbounds i8, ptr %1, i64 %20
  %22 = tail call fastcc noundef i32 @_ZN10duckdb_lz4L22LZ4_decompress_genericEPKcPciiNS_18earlyEnd_directiveENS_14dict_directiveEPKhS6_m(ptr noundef %0, ptr noundef %1, i32 noundef %2, i32 noundef %3, i32 noundef 0, i32 noundef 0, ptr noundef nonnull %21, ptr noundef null, i64 noundef 0)
  br label %25

23:                                               ; preds = %10
  %24 = tail call fastcc noundef i32 @_ZN10duckdb_lz4L22LZ4_decompress_genericEPKcPciiNS_18earlyEnd_directiveENS_14dict_directiveEPKhS6_m(ptr noundef %0, ptr noundef %1, i32 noundef %2, i32 noundef %3, i32 noundef 0, i32 noundef 2, ptr noundef %1, ptr noundef %4, i64 noundef %11)
  br label %25

25:                                               ; preds = %23, %19, %16, %8
  %.0 = phi i32 [ %9, %8 ], [ %18, %16 ], [ %22, %19 ], [ %24, %23 ]
  ret i32 %.0
}